; Function Attrs: mustprogress nofree norecurse nosync nounwind willreturn memory(argmem: read) uwtable
define dso_local noundef zeroext i1 @_ZNK4Luau21GenericTypeDefinitioneqERKS0_(ptr noundef nonnull readonly align 8 captures(none) dereferenceable(24) %0, ptr noundef nonnull readonly align 8 captures(none) dereferenceable(24) %1) local_unnamed_addr #9 align 2 {
  %3 = load ptr, ptr %0, align 8, !tbaa !409
  %4 = load ptr, ptr %1, align 8, !tbaa !409
  %5 = icmp eq ptr %3, %4
  br i1 %5, label %6, label %_ZSteqIPKN4Luau4TypeES3_ENSt9enable_ifIXsr14is_convertibleIDTeqclsr3stdE7declvalIRKT_EEclsr3stdE7declvalIRKT0_EEEbEE5valueEbE4typeERKSt8optionalIS5_ERKSE_IS8_E.exit

6:                                                ; preds = %2
  %7 = getelementptr inbounds nuw i8, ptr %0, i64 16
  %8 = load i8, ptr %7, align 8, !tbaa !239, !range !119, !noundef !118
  %9 = trunc nuw i8 %8 to i1
  %10 = getelementptr inbounds nuw i8, ptr %1, i64 16
  %11 = load i8, ptr %10, align 8, !tbaa !239, !range !119, !noundef !118
  %12 = icmp eq i8 %8, %11
  %brmerge.not.i = and i1 %12, %9
  br i1 %brmerge.not.i, label %13, label %_ZSteqIPKN4Luau4TypeES3_ENSt9enable_ifIXsr14is_convertibleIDTeqclsr3stdE7declvalIRKT_EEclsr3stdE7declvalIRKT0_EEEbEE5valueEbE4typeERKSt8optionalIS5_ERKSE_IS8_E.exit

13:                                               ; preds = %6
  %14 = getelementptr inbounds nuw i8, ptr %1, i64 8
  %15 = getelementptr inbounds nuw i8, ptr %0, i64 8
  %16 = load ptr, ptr %15, align 8, !tbaa !10
  %17 = load ptr, ptr %14, align 8, !tbaa !10
  %18 = icmp eq ptr %16, %17
  br label %_ZSteqIPKN4Luau4TypeES3_ENSt9enable_ifIXsr14is_convertibleIDTeqclsr3stdE7declvalIRKT_EEclsr3stdE7declvalIRKT0_EEEbEE5valueEbE4typeERKSt8optionalIS5_ERKSE_IS8_E.exit

_ZSteqIPKN4Luau4TypeES3_ENSt9enable_ifIXsr14is_convertibleIDTeqclsr3stdE7declvalIRKT_EEclsr3stdE7declvalIRKT0_EEEbEE5valueEbE4typeERKSt8optionalIS5_ERKSE_IS8_E.exit: ; preds = %13, %6, %2
  %19 = phi i1 [ false, %2 ], [ %12, %6 ], [ %18, %13 ]
  ret i1 %19
}